(dp1
S'output'
p2
S"<type 'exceptions.SyntaxError'> Field TopScore1 does not belong to the table"
p3
sS'layer'
p4
S'/home/nanda/Desktop/web2py/applications/Project/controllers/default.py'
p5
sS'code'
p6
S'# -*- coding: utf-8 -*-\n# this file is released under public domain and you can use without limitations\n\n#########################################################################\n## This is a sample controller\n## - index is the default action of any application\n## - user is required for authentication and authorization\n## - download is for downloading files uploaded in the db (does streaming)\n## - call exposes all registered services (none by default)\n#########################################################################\n\n\ndef index():\n    """\n    example action using the internationalization operator T and flash\n    rendered by views/default/index.html or views/generic.html\n\n    if you need a simple wiki simply replace the two lines below with:\n    return auth.wiki()\n    """\n    response.flash = T("Welcome to web2py!")\n    return dict(message=T(\'Hello World\'))\n\n\ndef user():\n    """\n    exposes:\n    http://..../[app]/default/user/login\n    http://..../[app]/default/user/logout\n    http://..../[app]/default/user/register\n    http://..../[app]/default/user/profile\n    http://..../[app]/default/user/retrieve_password\n    http://..../[app]/default/user/change_password\n    http://..../[app]/default/user/manage_users (requires membership in\n    use @auth.requires_login()\n        @auth.requires_membership(\'group name\')\n        @auth.requires_permission(\'read\',\'table name\',record_id)\n    to decorate functions that need access control\n    """\n    return dict(form=auth())\n\n@cache.action()\ndef download():\n    """\n    allows downloading of uploaded files\n    http://..../[app]/default/download/[filename]\n    """\n    return response.download(request, db)\n\n\ndef call():\n    """\n    exposes services. for example:\n    http://..../[app]/default/call/jsonrpc\n    decorate with @services.jsonrpc the functions to expose\n    supports xml, json, xmlrpc, jsonrpc, amfrpc, rss, csv\n    """\n    return service()\n\n\n@auth.requires_signature()\ndef data():\n    """\n    http://..../[app]/default/data/tables\n    http://..../[app]/default/data/create/[table]\n    http://..../[app]/default/data/read/[table]/[id]\n    http://..../[app]/default/data/update/[table]/[id]\n    http://..../[app]/default/data/delete/[table]/[id]\n    http://..../[app]/default/data/select/[table]\n    http://..../[app]/default/data/search/[table]\n    but URLs must be signed, i.e. linked with\n      A(\'table\',_href=URL(\'data/tables\',user_signature=True))\n    or with the signed load operator\n      LOAD(\'default\',\'data.load\',args=\'tables\',ajax=True,user_signature=True)\n    """\n    return dict(form=crud())\n\ndef hunt():\n\treturn dict()\n\ndef credits():\n\treturn dict()\n\ndef how():\n\treturn dict()\n\ndef level1():\n\treturn dict()\n\ndef level2():\n\treturn dict()\n\ndef scores():\n\t#db.mytable.truncate()\n\t#db.mytable.insert(TopScores="100")\n\t#db.mytable.insert(TopScores="200")\n\tif request.vars.score!=None:\n\t\tdb.mytable.insert(TopScore1=request.vars.score)\n\tif request.vars.score!=None:\n\t\tdb.mytable.insert(TopScore2=request.vars.score)\n\tdb.mytable.insert(TopScoret=TopScore1+TopScore2)\n\trow = db(db.mytable).select()\n\t\n\t#for r in row:\n\t#\tf = db(db.mytable.TopScores)\n\treturn dict(f = row)\n\ndef load():\n\treturn dict()\n\ndef screenshot():\n\treturn dict()\n\ndef story():\n\treturn dict()\n\ndef thanku():\n\treturn dict()\n\nresponse._vars=response._caller(scores)\n'
p7
sS'snapshot'
p8
(dp9
sS'traceback'
p10
S'Traceback (most recent call last):\n  File "/home/nanda/Desktop/web2py/gluon/restricted.py", line 217, in restricted\n    exec ccode in environment\n  File "/home/nanda/Desktop/web2py/applications/Project/controllers/default.py", line 120, in <module>\n  File "/home/nanda/Desktop/web2py/gluon/globals.py", line 385, in <lambda>\n    self._caller = lambda f: f()\n  File "/home/nanda/Desktop/web2py/applications/Project/controllers/default.py", line 98, in scores\n    db.mytable.insert(TopScore1=request.vars.score)\n  File "/home/nanda/Desktop/web2py/gluon/dal.py", line 9114, in insert\n    ret =  self._db._adapter.insert(self, self._listify(fields))\n  File "/home/nanda/Desktop/web2py/gluon/dal.py", line 9040, in _listify\n    \'Field %s does not belong to the table\' % name)\nSyntaxError: Field TopScore1 does not belong to the table\n'
p11
s.